target datalayout = "e-m:e-p270:32:32-p271:32:32-p272:64:64-i64:64-i128:128-f80:128-n8:16:32:64-S128"
target triple = "x86_64-pc-linux-gnu"

%struct.pmix_object_t = type { %union.pthread_mutex_t, ptr, i32, %struct.pmix_tma }
%union.pthread_mutex_t = type { %struct.__pthread_mutex_s }
%struct.__pthread_mutex_s = type { i32, i32, i32, i32, i32, i16, i16, %struct.__pthread_internal_list }
%struct.__pthread_internal_list = type { ptr, ptr }
%struct.pmix_tma = type { ptr, ptr, ptr, ptr, ptr, ptr, ptr, ptr }
%struct.pmix_list_item_t = type { %struct.pmix_object_t, ptr, ptr, i32 }
%struct.pmix_class_t = type { ptr, ptr, ptr, ptr, i32, i32, ptr, ptr, i64 }
%struct.pmix_value = type { i16, %union.anon }
%union.anon = type { %struct.pmix_envar_t }
%struct.pmix_envar_t = type { ptr, ptr, i8 }
%struct.pmix_kval_t = type { %struct.pmix_list_item_t, ptr, ptr }
%struct.pmix_data_array = type { i16, i64, ptr }
%struct.pmix_info = type { [512 x i8], i32, %struct.pmix_value }

@.str = private unnamed_addr constant [37 x i8] c"PMIX ERROR: %s in file %s at line %d\00", align 1
@.str.1 = private unnamed_addr constant [12 x i8] c"gds_utils.c\00", align 1
@pmix_kval_t_class = external global %struct.pmix_class_t, align 8
@pmix_class_init_epoch = external global i32, align 4

; Function Attrs: inlinehint nounwind uwtable
define internal void @pmix_obj_run_constructors(ptr noundef %0) #3 {
  %2 = alloca ptr, align 8
  %3 = alloca ptr, align 8
  store ptr %0, ptr %2, align 8, !tbaa !55
  call void @llvm.lifetime.start.p0(i64 8, ptr %3) #11
  %4 = load ptr, ptr %2, align 8, !tbaa !55
  %5 = getelementptr inbounds nuw %struct.pmix_object_t, ptr %4, i32 0, i32 1
  %6 = load ptr, ptr %5, align 8, !tbaa !66
  %7 = getelementptr inbounds nuw %struct.pmix_class_t, ptr %6, i32 0, i32 6
  %8 = load ptr, ptr %7, align 8, !tbaa !133
  store ptr %8, ptr %3, align 8, !tbaa !10
  br label %9

9:                                                ; preds = %13, %1
  %10 = load ptr, ptr %3, align 8, !tbaa !10
  %11 = load ptr, ptr %10, align 8, !tbaa !10
  %12 = icmp ne ptr null, %11
  br i1 %12, label %13, label %19

13:                                               ; preds = %9
  %14 = load ptr, ptr %3, align 8, !tbaa !10
  %15 = load ptr, ptr %14, align 8, !tbaa !10
  %16 = load ptr, ptr %2, align 8, !tbaa !55
  call void %15(ptr noundef %16)
  %17 = load ptr, ptr %3, align 8, !tbaa !10
  %18 = getelementptr inbounds nuw ptr, ptr %17, i32 1
  store ptr %18, ptr %3, align 8, !tbaa !10
  br label %9, !llvm.loop !134

19:                                               ; preds = %9
  call void @llvm.lifetime.end.p0(i64 8, ptr %3) #11
  ret void
}

; Function Attrs: inlinehint nounwind uwtable
define internal void @pmix_obj_construct_tma(ptr noundef %0, ptr noundef %1) #3 {
  %3 = alloca ptr, align 8
  %4 = alloca ptr, align 8
  store ptr %0, ptr %3, align 8, !tbaa !55
  store ptr %1, ptr %4, align 8, !tbaa !60
  %5 = load ptr, ptr %4, align 8, !tbaa !60
  %6 = icmp eq ptr null, %5
  br i1 %6, label %7, label %32

7:                                                ; preds = %2
  %8 = load ptr, ptr %3, align 8, !tbaa !55
  %9 = getelementptr inbounds nuw %struct.pmix_object_t, ptr %8, i32 0, i32 3
  %10 = getelementptr inbounds nuw %struct.pmix_tma, ptr %9, i32 0, i32 0
  store ptr null, ptr %10, align 8, !tbaa !68
  %11 = load ptr, ptr %3, align 8, !tbaa !55
  %12 = getelementptr inbounds nuw %struct.pmix_object_t, ptr %11, i32 0, i32 3
  %13 = getelementptr inbounds nuw %struct.pmix_tma, ptr %12, i32 0, i32 1
  store ptr null, ptr %13, align 8, !tbaa !69
  %14 = load ptr, ptr %3, align 8, !tbaa !55
  %15 = getelementptr inbounds nuw %struct.pmix_object_t, ptr %14, i32 0, i32 3
  %16 = getelementptr inbounds nuw %struct.pmix_tma, ptr %15, i32 0, i32 2
  store ptr null, ptr %16, align 8, !tbaa !70
  %17 = load ptr, ptr %3, align 8, !tbaa !55
  %18 = getelementptr inbounds nuw %struct.pmix_object_t, ptr %17, i32 0, i32 3
  %19 = getelementptr inbounds nuw %struct.pmix_tma, ptr %18, i32 0, i32 3
  store ptr null, ptr %19, align 8, !tbaa !71
  %20 = load ptr, ptr %3, align 8, !tbaa !55
  %21 = getelementptr inbounds nuw %struct.pmix_object_t, ptr %20, i32 0, i32 3
  %22 = getelementptr inbounds nuw %struct.pmix_tma, ptr %21, i32 0, i32 4
  store ptr null, ptr %22, align 8, !tbaa !132
  %23 = load ptr, ptr %3, align 8, !tbaa !55
  %24 = getelementptr inbounds nuw %struct.pmix_object_t, ptr %23, i32 0, i32 3
  %25 = getelementptr inbounds nuw %struct.pmix_tma, ptr %24, i32 0, i32 5
  store ptr null, ptr %25, align 8, !tbaa !57
  %26 = load ptr, ptr %3, align 8, !tbaa !55
  %27 = getelementptr inbounds nuw %struct.pmix_object_t, ptr %26, i32 0, i32 3
  %28 = getelementptr inbounds nuw %struct.pmix_tma, ptr %27, i32 0, i32 6
  store ptr null, ptr %28, align 8, !tbaa !72
  %29 = load ptr, ptr %3, align 8, !tbaa !55
  %30 = getelementptr inbounds nuw %struct.pmix_object_t, ptr %29, i32 0, i32 3
  %31 = getelementptr inbounds nuw %struct.pmix_tma, ptr %30, i32 0, i32 7
  store ptr null, ptr %31, align 8, !tbaa !73
  br label %36

32:                                               ; preds = %2
  %33 = load ptr, ptr %3, align 8, !tbaa !55
  %34 = getelementptr inbounds nuw %struct.pmix_object_t, ptr %33, i32 0, i32 3
  %35 = load ptr, ptr %4, align 8, !tbaa !60
  call void @llvm.memcpy.p0.p0.i64(ptr align 8 %34, ptr align 8 %35, i64 64, i1 false), !tbaa.struct !74
  br label %36

36:                                               ; preds = %32, %7
  ret void
}

; Function Attrs: nounwind uwtable
define i32 @pmix_gds_hash_store_qualified(ptr noundef %0, i32 noundef %1, ptr noundef %2) #0 {
  %4 = alloca ptr, align 8
  %5 = alloca i32, align 4
  %6 = alloca ptr, align 8
  %7 = alloca ptr, align 8
  %8 = alloca ptr, align 8
  %9 = alloca i64, align 8
  %10 = alloca i64, align 8
  %11 = alloca i64, align 8
  %12 = alloca %struct.pmix_kval_t, align 8
  %13 = alloca i32, align 4
  store ptr %0, ptr %4, align 8, !tbaa !103
  store i32 %1, ptr %5, align 4, !tbaa !64
  store ptr %2, ptr %6, align 8, !tbaa !125
  call void @llvm.lifetime.start.p0(i64 8, ptr %7) #11
  call void @llvm.lifetime.start.p0(i64 8, ptr %8) #11
  call void @llvm.lifetime.start.p0(i64 8, ptr %9) #11
  call void @llvm.lifetime.start.p0(i64 8, ptr %10) #11
  call void @llvm.lifetime.start.p0(i64 8, ptr %11) #11
  call void @llvm.lifetime.start.p0(i64 160, ptr %12) #11
  call void @llvm.lifetime.start.p0(i64 4, ptr %13) #11
  %14 = load ptr, ptr %6, align 8, !tbaa !125
  %15 = getelementptr inbounds nuw %struct.pmix_value, ptr %14, i32 0, i32 1
  %16 = load ptr, ptr %15, align 8, !tbaa !116
  %17 = getelementptr inbounds nuw %struct.pmix_data_array, ptr %16, i32 0, i32 2
  %18 = load ptr, ptr %17, align 8, !tbaa !126
  store ptr %18, ptr %7, align 8, !tbaa !128
  %19 = load ptr, ptr %6, align 8, !tbaa !125
  %20 = getelementptr inbounds nuw %struct.pmix_value, ptr %19, i32 0, i32 1
  %21 = load ptr, ptr %20, align 8, !tbaa !116
  %22 = getelementptr inbounds nuw %struct.pmix_data_array, ptr %21, i32 0, i32 1
  %23 = load i64, ptr %22, align 8, !tbaa !130
  store i64 %23, ptr %10, align 8, !tbaa !117
  br label %24

24:                                               ; preds = %3
  br label %25

25:                                               ; preds = %24
  br label %26

26:                                               ; preds = %25
  %27 = load i32, ptr @pmix_class_init_epoch, align 4, !tbaa !64
  %28 = load i32, ptr getelementptr inbounds nuw (%struct.pmix_class_t, ptr @pmix_kval_t_class, i32 0, i32 4), align 8, !tbaa !65
  %29 = icmp ne i32 %27, %28
  br i1 %29, label %30, label %31

30:                                               ; preds = %26
  call void @pmix_class_initialize(ptr noundef @pmix_kval_t_class)
  br label %31

31:                                               ; preds = %30, %26
  %32 = getelementptr inbounds nuw %struct.pmix_object_t, ptr %12, i32 0, i32 1
  store ptr @pmix_kval_t_class, ptr %32, align 8, !tbaa !66
  %33 = getelementptr inbounds nuw %struct.pmix_object_t, ptr %12, i32 0, i32 2
  store i32 1, ptr %33, align 8, !tbaa !67
  call void @pmix_obj_construct_tma(ptr noundef %12, ptr noundef null)
  call void @pmix_obj_run_constructors(ptr noundef %12)
  br label %34

34:                                               ; preds = %31
  br label %35

35:                                               ; preds = %34
  br label %36

36:                                               ; preds = %35
  br label %37

37:                                               ; preds = %36
  br label %38

38:                                               ; preds = %37
  br label %39

39:                                               ; preds = %38
  %40 = load ptr, ptr %7, align 8, !tbaa !128
  %41 = getelementptr inbounds %struct.pmix_info, ptr %40, i64 0
  %42 = getelementptr inbounds nuw %struct.pmix_info, ptr %41, i32 0, i32 0
  %43 = getelementptr inbounds [512 x i8], ptr %42, i64 0, i64 0
  %44 = getelementptr inbounds nuw %struct.pmix_kval_t, ptr %12, i32 0, i32 1
  store ptr %43, ptr %44, align 8, !tbaa !111
  %45 = load ptr, ptr %7, align 8, !tbaa !128
  %46 = getelementptr inbounds %struct.pmix_info, ptr %45, i64 0
  %47 = getelementptr inbounds nuw %struct.pmix_info, ptr %46, i32 0, i32 2
  %48 = getelementptr inbounds nuw %struct.pmix_kval_t, ptr %12, i32 0, i32 2
  store ptr %47, ptr %48, align 8, !tbaa !114
  %49 = load i64, ptr %10, align 8, !tbaa !117
  %50 = sub i64 %49, 1
  store i64 %50, ptr %11, align 8, !tbaa !117
  %51 = load i64, ptr %11, align 8, !tbaa !117
  %52 = call ptr @PMIx_Info_create(i64 noundef %51)
  store ptr %52, ptr %8, align 8, !tbaa !128
  store i64 1, ptr %9, align 8, !tbaa !117
  br label %53

53:                                               ; preds = %70, %39
  %54 = load i64, ptr %9, align 8, !tbaa !117
  %55 = load i64, ptr %10, align 8, !tbaa !117
  %56 = icmp ult i64 %54, %55
  br i1 %56, label %57, label %73

57:                                               ; preds = %53
  %58 = load ptr, ptr %8, align 8, !tbaa !128
  %59 = load i64, ptr %9, align 8, !tbaa !117
  %60 = sub i64 %59, 1
  %61 = getelementptr inbounds nuw %struct.pmix_info, ptr %58, i64 %60
  call void @PMIx_Info_qualifier(ptr noundef %61)
  %62 = load ptr, ptr %8, align 8, !tbaa !128
  %63 = load i64, ptr %9, align 8, !tbaa !117
  %64 = sub i64 %63, 1
  %65 = getelementptr inbounds nuw %struct.pmix_info, ptr %62, i64 %64
  %66 = load ptr, ptr %7, align 8, !tbaa !128
  %67 = load i64, ptr %9, align 8, !tbaa !117
  %68 = getelementptr inbounds nuw %struct.pmix_info, ptr %66, i64 %67
  %69 = call i32 @PMIx_Info_xfer(ptr noundef %65, ptr noundef %68)
  br label %70

70:                                               ; preds = %57
  %71 = load i64, ptr %9, align 8, !tbaa !117
  %72 = add i64 %71, 1
  store i64 %72, ptr %9, align 8, !tbaa !117
  br label %53, !llvm.loop !131

73:                                               ; preds = %53
  %74 = load ptr, ptr %4, align 8, !tbaa !103
  %75 = load i32, ptr %5, align 4, !tbaa !64
  %76 = load ptr, ptr %8, align 8, !tbaa !128
  %77 = load i64, ptr %11, align 8, !tbaa !117
  %78 = call i32 @pmix_hash_store(ptr noundef %74, i32 noundef %75, ptr noundef %12, ptr noundef %76, i64 noundef %77, ptr noundef null)
  store i32 %78, ptr %13, align 4, !tbaa !64
  %79 = load i32, ptr %13, align 4, !tbaa !64
  %80 = icmp ne i32 0, %79
  br i1 %80, label %81, label %91

81:                                               ; preds = %73
  br label %82

82:                                               ; preds = %81
  %83 = load i32, ptr %13, align 4, !tbaa !64
  %84 = icmp ne i32 -2, %83
  br i1 %84, label %85, label %88

85:                                               ; preds = %82
  %86 = load i32, ptr %13, align 4, !tbaa !64
  %87 = call ptr @PMIx_Error_string(i32 noundef %86)
  call void (i32, ptr, ...) @pmix_output(i32 noundef 0, ptr noundef @.str, ptr noundef %87, ptr noundef @.str.1, i32 noundef 598)
  br label %88

88:                                               ; preds = %85, %82
  br label %89

89:                                               ; preds = %88
  br label %90

90:                                               ; preds = %89
  br label %91

91:                                               ; preds = %90, %73
  br label %92

92:                                               ; preds = %91
  %93 = load ptr, ptr %8, align 8, !tbaa !128
  %94 = load i64, ptr %11, align 8, !tbaa !117
  call void @PMIx_Info_free(ptr noundef %93, i64 noundef %94)
  store ptr null, ptr %8, align 8, !tbaa !128
  br label %95

95:                                               ; preds = %92
  br label %96

96:                                               ; preds = %95
  %97 = load i32, ptr %13, align 4, !tbaa !64
  call void @llvm.lifetime.end.p0(i64 4, ptr %13) #11
  call void @llvm.lifetime.end.p0(i64 160, ptr %12) #11
  call void @llvm.lifetime.end.p0(i64 8, ptr %11) #11
  call void @llvm.lifetime.end.p0(i64 8, ptr %10) #11
  call void @llvm.lifetime.end.p0(i64 8, ptr %9) #11
  call void @llvm.lifetime.end.p0(i64 8, ptr %8) #11
  call void @llvm.lifetime.end.p0(i64 8, ptr %7) #11
  ret i32 %97
}