; Function Attrs: nounwind uwtable
define noundef i32 @pmix_gds_hash_store_qualified(ptr noundef %0, i32 noundef %1, ptr noundef readonly captures(none) %2) local_unnamed_addr #0 {
  %4 = alloca %struct.pmix_kval_t, align 8
  call void @llvm.lifetime.start.p0(i64 160, ptr nonnull %4) #18
  %5 = getelementptr inbounds nuw i8, ptr %2, i64 8
  %6 = load ptr, ptr %5, align 8, !tbaa !90
  %7 = getelementptr inbounds nuw i8, ptr %6, i64 16
  %8 = load ptr, ptr %7, align 8, !tbaa !97
  %9 = getelementptr inbounds nuw i8, ptr %6, i64 8
  %10 = load i64, ptr %9, align 8, !tbaa !99
  %11 = load i32, ptr @pmix_class_init_epoch, align 4, !tbaa !26
  %12 = load i32, ptr getelementptr inbounds nuw (i8, ptr @pmix_kval_t_class, i64 32), align 8, !tbaa !27
  %.not = icmp eq i32 %11, %12
  br i1 %.not, label %14, label %13

13:                                               ; preds = %3
  tail call void @pmix_class_initialize(ptr noundef nonnull @pmix_kval_t_class) #18
  br label %14

14:                                               ; preds = %13, %3
  %15 = getelementptr inbounds nuw i8, ptr %4, i64 40
  store ptr @pmix_kval_t_class, ptr %15, align 8, !tbaa !28
  %16 = getelementptr inbounds nuw i8, ptr %4, i64 48
  store i32 1, ptr %16, align 8, !tbaa !29
  %17 = getelementptr inbounds nuw i8, ptr %4, i64 56
  call void @llvm.memset.p0.i64(ptr noundef nonnull align 8 dereferenceable(64) %17, i8 0, i64 64, i1 false)
  %18 = load ptr, ptr getelementptr inbounds nuw (i8, ptr @pmix_kval_t_class, i64 40), align 8, !tbaa !30
  %19 = load ptr, ptr %18, align 8, !tbaa !31
  %.not6.i = icmp eq ptr %19, null
  br i1 %.not6.i, label %pmix_obj_run_constructors.exit, label %.lr.ph.i

.lr.ph.i:                                         ; preds = %14, %.lr.ph.i
  %20 = phi ptr [ %22, %.lr.ph.i ], [ %19, %14 ]
  %.07.i = phi ptr [ %21, %.lr.ph.i ], [ %18, %14 ]
  call void %20(ptr noundef nonnull %4) #18
  %21 = getelementptr inbounds nuw i8, ptr %.07.i, i64 8
  %22 = load ptr, ptr %21, align 8, !tbaa !31
  %.not.i = icmp eq ptr %22, null
  br i1 %.not.i, label %pmix_obj_run_constructors.exit, label %.lr.ph.i, !llvm.loop !32

pmix_obj_run_constructors.exit:                   ; preds = %.lr.ph.i, %14
  %23 = getelementptr inbounds nuw i8, ptr %4, i64 144
  store ptr %8, ptr %23, align 8, !tbaa !85
  %24 = getelementptr inbounds nuw i8, ptr %8, i64 520
  %25 = getelementptr inbounds nuw i8, ptr %4, i64 152
  store ptr %24, ptr %25, align 8, !tbaa !88
  %26 = add i64 %10, -1
  %27 = call ptr @PMIx_Info_create(i64 noundef %26) #18
  %invariant.gep = getelementptr i8, ptr %27, i64 -552
  %28 = icmp ugt i64 %10, 1
  br i1 %28, label %.lr.ph, label %._crit_edge

.lr.ph:                                           ; preds = %pmix_obj_run_constructors.exit, %.lr.ph
  %.026 = phi i64 [ %31, %.lr.ph ], [ 1, %pmix_obj_run_constructors.exit ]
  %gep = getelementptr %struct.pmix_info, ptr %invariant.gep, i64 %.026
  call void @PMIx_Info_qualifier(ptr noundef %gep) #18
  %29 = getelementptr inbounds nuw %struct.pmix_info, ptr %8, i64 %.026
  %30 = call i32 @PMIx_Info_xfer(ptr noundef %gep, ptr noundef nonnull %29) #18
  %31 = add nuw i64 %.026, 1
  %exitcond.not = icmp eq i64 %31, %10
  br i1 %exitcond.not, label %._crit_edge, label %.lr.ph, !llvm.loop !100

._crit_edge:                                      ; preds = %.lr.ph, %pmix_obj_run_constructors.exit
  %32 = call i32 @pmix_hash_store(ptr noundef %0, i32 noundef %1, ptr noundef nonnull %4, ptr noundef %27, i64 noundef %26, ptr noundef null) #18
  switch i32 %32, label %33 [
    i32 -2, label %35
    i32 0, label %35
  ]

33:                                               ; preds = %._crit_edge
  %34 = call ptr @PMIx_Error_string(i32 noundef %32) #18
  call void (i32, ptr, ...) @pmix_output(i32 noundef 0, ptr noundef nonnull @.str, ptr noundef %34, ptr noundef nonnull @.str.1, i32 noundef 598) #18
  br label %35

35:                                               ; preds = %._crit_edge, %._crit_edge, %33
  call void @PMIx_Info_free(ptr noundef %27, i64 noundef %26) #18
  call void @llvm.lifetime.end.p0(i64 160, ptr nonnull %4) #18
  ret i32 %32
}